	.file	"mul.cpp"
	.intel_syntax noprefix
	.section	.text._Z3mulILi0EEii,"axG",@progbits,_Z3mulILi0EEii,comdat
	.p2align 4,,15
	.weak	_Z3mulILi0EEii
	.type	_Z3mulILi0EEii, @function
_Z3mulILi0EEii:
.LFB1:
	.cfi_startproc
	xor	eax, eax
	ret
	.cfi_endproc
.LFE1:
	.size	_Z3mulILi0EEii, .-_Z3mulILi0EEii
	.section	.text._Z3mulILi1EEii,"axG",@progbits,_Z3mulILi1EEii,comdat
	.p2align 4,,15
	.weak	_Z3mulILi1EEii
	.type	_Z3mulILi1EEii, @function
_Z3mulILi1EEii:
.LFB2:
	.cfi_startproc
	mov	eax, edi
	ret
	.cfi_endproc
.LFE2:
	.size	_Z3mulILi1EEii, .-_Z3mulILi1EEii
	.section	.text._Z3mulILi2EEii,"axG",@progbits,_Z3mulILi2EEii,comdat
	.p2align 4,,15
	.weak	_Z3mulILi2EEii
	.type	_Z3mulILi2EEii, @function
_Z3mulILi2EEii:
.LFB3:
	.cfi_startproc
	lea	eax, [rdi+rdi]
	ret
	.cfi_endproc
.LFE3:
	.size	_Z3mulILi2EEii, .-_Z3mulILi2EEii
	.section	.text._Z3mulILi3EEii,"axG",@progbits,_Z3mulILi3EEii,comdat
	.p2align 4,,15
	.weak	_Z3mulILi3EEii
	.type	_Z3mulILi3EEii, @function
_Z3mulILi3EEii:
.LFB4:
	.cfi_startproc
	lea	eax, [rdi+rdi*2]
	ret
	.cfi_endproc
.LFE4:
	.size	_Z3mulILi3EEii, .-_Z3mulILi3EEii
	.section	.text._Z3mulILi4EEii,"axG",@progbits,_Z3mulILi4EEii,comdat
	.p2align 4,,15
	.weak	_Z3mulILi4EEii
	.type	_Z3mulILi4EEii, @function
_Z3mulILi4EEii:
.LFB5:
	.cfi_startproc
	lea	eax, [0+rdi*4]
	ret
	.cfi_endproc
.LFE5:
	.size	_Z3mulILi4EEii, .-_Z3mulILi4EEii
	.section	.text._Z3mulILi5EEii,"axG",@progbits,_Z3mulILi5EEii,comdat
	.p2align 4,,15
	.weak	_Z3mulILi5EEii
	.type	_Z3mulILi5EEii, @function
_Z3mulILi5EEii:
.LFB6:
	.cfi_startproc
	lea	eax, [rdi+rdi*4]
	ret
	.cfi_endproc
.LFE6:
	.size	_Z3mulILi5EEii, .-_Z3mulILi5EEii
	.section	.text._Z3mulILi6EEii,"axG",@progbits,_Z3mulILi6EEii,comdat
	.p2align 4,,15
	.weak	_Z3mulILi6EEii
	.type	_Z3mulILi6EEii, @function
_Z3mulILi6EEii:
.LFB7:
	.cfi_startproc
	lea	eax, [rdi+rdi*2]
	add	eax, eax
	ret
	.cfi_endproc
.LFE7:
	.size	_Z3mulILi6EEii, .-_Z3mulILi6EEii
	.section	.text._Z3mulILi7EEii,"axG",@progbits,_Z3mulILi7EEii,comdat
	.p2align 4,,15
	.weak	_Z3mulILi7EEii
	.type	_Z3mulILi7EEii, @function
_Z3mulILi7EEii:
.LFB8:
	.cfi_startproc
	lea	eax, [0+rdi*8]
	sub	eax, edi
	ret
	.cfi_endproc
.LFE8:
	.size	_Z3mulILi7EEii, .-_Z3mulILi7EEii
	.section	.text._Z3mulILi8EEii,"axG",@progbits,_Z3mulILi8EEii,comdat
	.p2align 4,,15
	.weak	_Z3mulILi8EEii
	.type	_Z3mulILi8EEii, @function
_Z3mulILi8EEii:
.LFB9:
	.cfi_startproc
	lea	eax, [0+rdi*8]
	ret
	.cfi_endproc
.LFE9:
	.size	_Z3mulILi8EEii, .-_Z3mulILi8EEii
	.section	.text._Z3mulILi9EEii,"axG",@progbits,_Z3mulILi9EEii,comdat
	.p2align 4,,15
	.weak	_Z3mulILi9EEii
	.type	_Z3mulILi9EEii, @function
_Z3mulILi9EEii:
.LFB10:
	.cfi_startproc
	lea	eax, [rdi+rdi*8]
	ret
	.cfi_endproc
.LFE10:
	.size	_Z3mulILi9EEii, .-_Z3mulILi9EEii
	.section	.text._Z3mulILi10EEii,"axG",@progbits,_Z3mulILi10EEii,comdat
	.p2align 4,,15
	.weak	_Z3mulILi10EEii
	.type	_Z3mulILi10EEii, @function
_Z3mulILi10EEii:
.LFB11:
	.cfi_startproc
	lea	eax, [rdi+rdi*4]
	add	eax, eax
	ret
	.cfi_endproc
.LFE11:
	.size	_Z3mulILi10EEii, .-_Z3mulILi10EEii
	.section	.text._Z3mulILi11EEii,"axG",@progbits,_Z3mulILi11EEii,comdat
	.p2align 4,,15
	.weak	_Z3mulILi11EEii
	.type	_Z3mulILi11EEii, @function
_Z3mulILi11EEii:
.LFB12:
	.cfi_startproc
	lea	eax, [rdi+rdi*4]
	lea	eax, [rdi+rax*2]
	ret
	.cfi_endproc
.LFE12:
	.size	_Z3mulILi11EEii, .-_Z3mulILi11EEii
	.section	.text._Z3mulILi12EEii,"axG",@progbits,_Z3mulILi12EEii,comdat
	.p2align 4,,15
	.weak	_Z3mulILi12EEii
	.type	_Z3mulILi12EEii, @function
_Z3mulILi12EEii:
.LFB13:
	.cfi_startproc
	lea	eax, [rdi+rdi*2]
	sal	eax, 2
	ret
	.cfi_endproc
.LFE13:
	.size	_Z3mulILi12EEii, .-_Z3mulILi12EEii
	.section	.text._Z3mulILi13EEii,"axG",@progbits,_Z3mulILi13EEii,comdat
	.p2align 4,,15
	.weak	_Z3mulILi13EEii
	.type	_Z3mulILi13EEii, @function
_Z3mulILi13EEii:
.LFB14:
	.cfi_startproc
	lea	eax, [rdi+rdi*2]
	lea	eax, [rdi+rax*4]
	ret
	.cfi_endproc
.LFE14:
	.size	_Z3mulILi13EEii, .-_Z3mulILi13EEii
	.section	.text._Z3mulILi14EEii,"axG",@progbits,_Z3mulILi14EEii,comdat
	.p2align 4,,15
	.weak	_Z3mulILi14EEii
	.type	_Z3mulILi14EEii, @function
_Z3mulILi14EEii:
.LFB15:
	.cfi_startproc
	mov	eax, edi
	mov	edx, 14
	imul	eax, edx
	ret
	.cfi_endproc
.LFE15:
	.size	_Z3mulILi14EEii, .-_Z3mulILi14EEii
	.section	.text._Z3mulILi97EEii,"axG",@progbits,_Z3mulILi97EEii,comdat
	.p2align 4,,15
	.weak	_Z3mulILi97EEii
	.type	_Z3mulILi97EEii, @function
_Z3mulILi97EEii:
.LFB16:
	.cfi_startproc
	mov	eax, edi
	mov	ecx, 97
	imul	eax, ecx
	ret
	.cfi_endproc
.LFE16:
	.size	_Z3mulILi97EEii, .-_Z3mulILi97EEii
	.ident	"GCC: (Ubuntu/Linaro 4.7.3-1ubuntu1) 4.7.3"
	.section	.note.GNU-stack,"",@progbits
