	.file	"udiv.cpp"
	.intel_syntax noprefix
	.section	.text._Z3divILj1EEjj,"axG",@progbits,_Z3divILj1EEjj,comdat
	.p2align 4,,15
	.weak	_Z3divILj1EEjj
	.type	_Z3divILj1EEjj, @function
_Z3divILj1EEjj:
.LFB1:
	.cfi_startproc
	mov	eax, edi
	ret
	.cfi_endproc
.LFE1:
	.size	_Z3divILj1EEjj, .-_Z3divILj1EEjj
	.section	.text._Z3divILj2EEjj,"axG",@progbits,_Z3divILj2EEjj,comdat
	.p2align 4,,15
	.weak	_Z3divILj2EEjj
	.type	_Z3divILj2EEjj, @function
_Z3divILj2EEjj:
.LFB2:
	.cfi_startproc
	mov	eax, edi
	shr	eax
	ret
	.cfi_endproc
.LFE2:
	.size	_Z3divILj2EEjj, .-_Z3divILj2EEjj
	.section	.text._Z3divILj3EEjj,"axG",@progbits,_Z3divILj3EEjj,comdat
	.p2align 4,,15
	.weak	_Z3divILj3EEjj
	.type	_Z3divILj3EEjj, @function
_Z3divILj3EEjj:
.LFB3:
	.cfi_startproc
	mov	eax, edi
	mov	edx, -1431655765
	mul	edx
	shr	edx
	mov	eax, edx
	ret
	.cfi_endproc
.LFE3:
	.size	_Z3divILj3EEjj, .-_Z3divILj3EEjj
	.section	.text._Z3divILj4EEjj,"axG",@progbits,_Z3divILj4EEjj,comdat
	.p2align 4,,15
	.weak	_Z3divILj4EEjj
	.type	_Z3divILj4EEjj, @function
_Z3divILj4EEjj:
.LFB4:
	.cfi_startproc
	mov	eax, edi
	shr	eax, 2
	ret
	.cfi_endproc
.LFE4:
	.size	_Z3divILj4EEjj, .-_Z3divILj4EEjj
	.section	.text._Z3divILj5EEjj,"axG",@progbits,_Z3divILj5EEjj,comdat
	.p2align 4,,15
	.weak	_Z3divILj5EEjj
	.type	_Z3divILj5EEjj, @function
_Z3divILj5EEjj:
.LFB5:
	.cfi_startproc
	mov	eax, edi
	mov	edx, -858993459
	mul	edx
	shr	edx, 2
	mov	eax, edx
	ret
	.cfi_endproc
.LFE5:
	.size	_Z3divILj5EEjj, .-_Z3divILj5EEjj
	.section	.text._Z3divILj6EEjj,"axG",@progbits,_Z3divILj6EEjj,comdat
	.p2align 4,,15
	.weak	_Z3divILj6EEjj
	.type	_Z3divILj6EEjj, @function
_Z3divILj6EEjj:
.LFB6:
	.cfi_startproc
	mov	eax, edi
	mov	edx, -1431655765
	mul	edx
	shr	edx, 2
	mov	eax, edx
	ret
	.cfi_endproc
.LFE6:
	.size	_Z3divILj6EEjj, .-_Z3divILj6EEjj
	.section	.text._Z3divILj7EEjj,"axG",@progbits,_Z3divILj7EEjj,comdat
	.p2align 4,,15
	.weak	_Z3divILj7EEjj
	.type	_Z3divILj7EEjj, @function
_Z3divILj7EEjj:
.LFB7:
	.cfi_startproc
	mov	eax, edi
	mov	edx, 613566757
	mul	edx
	sub	edi, edx
	shr	edi
	lea	eax, [rdx+rdi]
	shr	eax, 2
	ret
	.cfi_endproc
.LFE7:
	.size	_Z3divILj7EEjj, .-_Z3divILj7EEjj
	.section	.text._Z3divILj8EEjj,"axG",@progbits,_Z3divILj8EEjj,comdat
	.p2align 4,,15
	.weak	_Z3divILj8EEjj
	.type	_Z3divILj8EEjj, @function
_Z3divILj8EEjj:
.LFB8:
	.cfi_startproc
	mov	eax, edi
	shr	eax, 3
	ret
	.cfi_endproc
.LFE8:
	.size	_Z3divILj8EEjj, .-_Z3divILj8EEjj
	.section	.text._Z3divILj9EEjj,"axG",@progbits,_Z3divILj9EEjj,comdat
	.p2align 4,,15
	.weak	_Z3divILj9EEjj
	.type	_Z3divILj9EEjj, @function
_Z3divILj9EEjj:
.LFB9:
	.cfi_startproc
	mov	eax, edi
	mov	edx, 954437177
	mul	edx
	shr	edx
	mov	eax, edx
	ret
	.cfi_endproc
.LFE9:
	.size	_Z3divILj9EEjj, .-_Z3divILj9EEjj
	.section	.text._Z3divILj10EEjj,"axG",@progbits,_Z3divILj10EEjj,comdat
	.p2align 4,,15
	.weak	_Z3divILj10EEjj
	.type	_Z3divILj10EEjj, @function
_Z3divILj10EEjj:
.LFB10:
	.cfi_startproc
	mov	eax, edi
	mov	edx, -858993459
	mul	edx
	shr	edx, 3
	mov	eax, edx
	ret
	.cfi_endproc
.LFE10:
	.size	_Z3divILj10EEjj, .-_Z3divILj10EEjj
	.section	.text._Z3divILj11EEjj,"axG",@progbits,_Z3divILj11EEjj,comdat
	.p2align 4,,15
	.weak	_Z3divILj11EEjj
	.type	_Z3divILj11EEjj, @function
_Z3divILj11EEjj:
.LFB11:
	.cfi_startproc
	mov	eax, edi
	mov	edx, -1171354717
	mul	edx
	shr	edx, 3
	mov	eax, edx
	ret
	.cfi_endproc
.LFE11:
	.size	_Z3divILj11EEjj, .-_Z3divILj11EEjj
	.section	.text._Z3divILj12EEjj,"axG",@progbits,_Z3divILj12EEjj,comdat
	.p2align 4,,15
	.weak	_Z3divILj12EEjj
	.type	_Z3divILj12EEjj, @function
_Z3divILj12EEjj:
.LFB12:
	.cfi_startproc
	mov	eax, edi
	mov	edx, -1431655765
	mul	edx
	shr	edx, 3
	mov	eax, edx
	ret
	.cfi_endproc
.LFE12:
	.size	_Z3divILj12EEjj, .-_Z3divILj12EEjj
	.section	.text._Z3divILj13EEjj,"axG",@progbits,_Z3divILj13EEjj,comdat
	.p2align 4,,15
	.weak	_Z3divILj13EEjj
	.type	_Z3divILj13EEjj, @function
_Z3divILj13EEjj:
.LFB13:
	.cfi_startproc
	mov	eax, edi
	mov	edx, 1321528399
	mul	edx
	shr	edx, 2
	mov	eax, edx
	ret
	.cfi_endproc
.LFE13:
	.size	_Z3divILj13EEjj, .-_Z3divILj13EEjj
	.section	.text._Z3divILj14EEjj,"axG",@progbits,_Z3divILj14EEjj,comdat
	.p2align 4,,15
	.weak	_Z3divILj14EEjj
	.type	_Z3divILj14EEjj, @function
_Z3divILj14EEjj:
.LFB14:
	.cfi_startproc
	shr	edi
	mov	edx, -1840700269
	mov	eax, edi
	mul	edx
	shr	edx, 2
	mov	eax, edx
	ret
	.cfi_endproc
.LFE14:
	.size	_Z3divILj14EEjj, .-_Z3divILj14EEjj
	.section	.text._Z3divILj97EEjj,"axG",@progbits,_Z3divILj97EEjj,comdat
	.p2align 4,,15
	.weak	_Z3divILj97EEjj
	.type	_Z3divILj97EEjj, @function
_Z3divILj97EEjj:
.LFB15:
	.cfi_startproc
	mov	eax, edi
	mov	edx, 1372618415
	mul	edx
	sub	edi, edx
	shr	edi
	lea	eax, [rdx+rdi]
	shr	eax, 6
	ret
	.cfi_endproc
.LFE15:
	.size	_Z3divILj97EEjj, .-_Z3divILj97EEjj
	.ident	"GCC: (Ubuntu/Linaro 4.7.3-1ubuntu1) 4.7.3"
	.section	.note.GNU-stack,"",@progbits
